target datalayout = "e-m:e-p270:32:32-p271:32:32-p272:64:64-i64:64-i128:128-f80:128-n8:16:32:64-S128"
target triple = "x86_64-pc-linux-gnu"

%struct.expert_field = type { i32, i32 }
%struct._header_field_info = type { ptr, ptr, i32, i32, ptr, i64, ptr, i32, i32, i32, i32, ptr }
%struct._packet_info = type { ptr, ptr, i32, i32, %struct.nstime_t, %struct.nstime_t, %struct.nstime_t, i8, ptr, ptr, ptr, ptr, %struct._address, %struct._address, %struct._address, %struct._address, %struct._address, %struct._address, i32, ptr, i8, [3 x i8], %struct.anon, i32, i32, i32, i32, ptr, i8, ptr, ptr, i16, i16, i32, i32, i16, i32, i32, ptr, ptr, ptr, i8, i8, i16, i16, i16, i32, i16, i16, ptr, ptr, ptr, ptr, ptr, i32, i32 }
%struct.nstime_t = type { i64, i32 }
%struct._address = type { i32, i32, ptr, ptr }
%struct.anon = type { i8, [3 x i8] }
%struct._asn1_ctx_t = type { i32, i32, i8, ptr, ptr, ptr, ptr, ptr, %struct.anon.0, %struct.anon.3, %struct.anon.4, ptr }
%struct.anon.0 = type { i32, i8, i8, i8, ptr, ptr, i32, i32, ptr, ptr, ptr, %union.anon }
%union.anon = type { %struct.anon.1 }
%struct.anon.1 = type { ptr }
%struct.anon.3 = type { ptr, ptr, ptr }
%struct.anon.4 = type { i32, i8, ptr, i32, i32, ptr, ptr, ptr, %union.anon.5 }
%union.anon.5 = type { %struct.anon.6 }
%struct.anon.6 = type { ptr }

@ei_per_undecoded = internal global %struct.expert_field zeroinitializer, align 4
@.str = private unnamed_addr constant [28 x i8] c"something unknown here [%s]\00", align 1
@.str.1 = private unnamed_addr constant [18 x i8] c"[UNKNOWN PER: %s]\00", align 1
@hf_per_integer_length = internal global i32 0, align 4
@.str.19 = private unnamed_addr constant [30 x i8] c"too long integer(per_integer)\00", align 1
@.str.20 = private unnamed_addr constant [18 x i8] c"unexpected length\00", align 1
@ei_per_field_not_integer = internal global %struct.expert_field zeroinitializer, align 4
@.str.21 = private unnamed_addr constant [28 x i8] c"Field is not an integer: %s\00", align 1
@.str.22 = private unnamed_addr constant [52 x i8] c"PER integer field that's not an FT_INT* or FT_UINT*\00", align 1

; Function Attrs: null_pointer_is_valid sspstrong uwtable
define void @dissect_per_not_decoded_yet(ptr noundef %0, ptr noundef %1, ptr noundef %2, ptr noundef %3) #0 {
  %5 = alloca ptr, align 8
  %6 = alloca ptr, align 8
  %7 = alloca ptr, align 8
  %8 = alloca ptr, align 8
  store ptr %0, ptr %5, align 8
  store ptr %1, ptr %6, align 8
  store ptr %2, ptr %7, align 8
  store ptr %3, ptr %8, align 8
  %9 = load ptr, ptr %5, align 8
  %10 = load ptr, ptr %6, align 8
  %11 = load ptr, ptr %7, align 8
  %12 = load ptr, ptr %8, align 8
  %13 = call ptr (ptr, ptr, ptr, ptr, i32, i32, ptr, ...) @proto_tree_add_expert_format(ptr noundef %9, ptr noundef %10, ptr noundef @ei_per_undecoded, ptr noundef %11, i32 noundef 0, i32 noundef 0, ptr noundef @.str, ptr noundef %12)
  %14 = load ptr, ptr %6, align 8
  %15 = getelementptr inbounds nuw %struct._packet_info, ptr %14, i32 0, i32 1
  %16 = load ptr, ptr %15, align 8
  %17 = load ptr, ptr %8, align 8
  call void (ptr, i32, ptr, ...) @col_append_fstr(ptr noundef %16, i32 noundef 25, ptr noundef @.str.1, ptr noundef %17)
  call void @except_throw(i64 noundef 1, i64 noundef 3, ptr noundef null) #12
  unreachable
}

; Function Attrs: null_pointer_is_valid sspstrong uwtable
define i32 @dissect_per_integer(ptr noundef %0, i32 noundef %1, ptr noundef %2, ptr noundef %3, i32 noundef %4, ptr noundef %5) #0 {
  %7 = alloca ptr, align 8
  %8 = alloca i32, align 4
  %9 = alloca ptr, align 8
  %10 = alloca ptr, align 8
  %11 = alloca i32, align 4
  %12 = alloca ptr, align 8
  %13 = alloca i32, align 4
  %14 = alloca i32, align 4
  %15 = alloca i32, align 4
  %16 = alloca ptr, align 8
  %17 = alloca ptr, align 8
  %18 = alloca ptr, align 8
  store ptr %0, ptr %7, align 8
  store i32 %1, ptr %8, align 4
  store ptr %2, ptr %9, align 8
  store ptr %3, ptr %10, align 8
  store i32 %4, ptr %11, align 4
  store ptr %5, ptr %12, align 8
  call void @llvm.lifetime.start.p0(i64 4, ptr %13) #11
  call void @llvm.lifetime.start.p0(i64 4, ptr %14) #11
  call void @llvm.lifetime.start.p0(i64 4, ptr %15) #11
  call void @llvm.lifetime.start.p0(i64 8, ptr %16) #11
  store ptr null, ptr %16, align 8
  call void @llvm.lifetime.start.p0(i64 8, ptr %17) #11
  store ptr null, ptr %17, align 8
  call void @llvm.lifetime.start.p0(i64 8, ptr %18) #11
  %19 = load ptr, ptr %7, align 8
  %20 = load i32, ptr %8, align 4
  %21 = load ptr, ptr %9, align 8
  %22 = load ptr, ptr %10, align 8
  %23 = load i32, ptr @hf_per_integer_length, align 4
  %24 = call i32 @dissect_per_length_determinant(ptr noundef %19, i32 noundef %20, ptr noundef %21, ptr noundef %22, i32 noundef %23, ptr noundef %14, ptr noundef null)
  store i32 %24, ptr %8, align 4
  %25 = load i32, ptr %14, align 4
  %26 = icmp ugt i32 %25, 4
  br i1 %26, label %27, label %33

27:                                               ; preds = %6
  %28 = load ptr, ptr %10, align 8
  %29 = load ptr, ptr %9, align 8
  %30 = getelementptr inbounds nuw %struct._asn1_ctx_t, ptr %29, i32 0, i32 3
  %31 = load ptr, ptr %30, align 8
  %32 = load ptr, ptr %7, align 8
  call void @dissect_per_not_decoded_yet(ptr noundef %28, ptr noundef %31, ptr noundef %32, ptr noundef @.str.19)
  store i32 4, ptr %14, align 4
  br label %33

33:                                               ; preds = %27, %6
  %34 = load i32, ptr %14, align 4
  %35 = icmp eq i32 %34, 0
  br i1 %35, label %36, label %42

36:                                               ; preds = %33
  %37 = load ptr, ptr %10, align 8
  %38 = load ptr, ptr %9, align 8
  %39 = getelementptr inbounds nuw %struct._asn1_ctx_t, ptr %38, i32 0, i32 3
  %40 = load ptr, ptr %39, align 8
  %41 = load ptr, ptr %7, align 8
  call void @dissect_per_not_decoded_yet(ptr noundef %37, ptr noundef %40, ptr noundef %41, ptr noundef @.str.20)
  br label %42

42:                                               ; preds = %36, %33
  %43 = load ptr, ptr %9, align 8
  %44 = getelementptr inbounds nuw %struct._asn1_ctx_t, ptr %43, i32 0, i32 2
  %45 = load i8, ptr %44, align 8, !range !6, !noundef !7
  %46 = trunc i8 %45 to i1
  br i1 %46, label %47, label %56

47:                                               ; preds = %42
  %48 = load i32, ptr %8, align 4
  %49 = and i32 %48, 7
  %50 = icmp ne i32 %49, 0
  br i1 %50, label %51, label %55

51:                                               ; preds = %47
  %52 = load i32, ptr %8, align 4
  %53 = and i32 %52, -8
  %54 = add i32 %53, 8
  store i32 %54, ptr %8, align 4
  br label %55

55:                                               ; preds = %51, %47
  br label %56

56:                                               ; preds = %55, %42
  %57 = load ptr, ptr %7, align 8
  %58 = load i32, ptr %8, align 4
  %59 = load i32, ptr %14, align 4
  %60 = mul i32 %59, 8
  %61 = call ptr @tvb_new_octet_aligned(ptr noundef %57, i32 noundef %58, i32 noundef %60)
  store ptr %61, ptr %16, align 8
  store i32 0, ptr %15, align 4
  store i32 0, ptr %13, align 4
  br label %62

62:                                               ; preds = %87, %56
  %63 = load i32, ptr %13, align 4
  %64 = load i32, ptr %14, align 4
  %65 = icmp ult i32 %63, %64
  br i1 %65, label %66, label %90

66:                                               ; preds = %62
  %67 = load i32, ptr %13, align 4
  %68 = icmp eq i32 %67, 0
  br i1 %68, label %69, label %79

69:                                               ; preds = %66
  %70 = load ptr, ptr %16, align 8
  %71 = load i32, ptr %13, align 4
  %72 = call zeroext i8 @tvb_get_uint8(ptr noundef %70, i32 noundef %71)
  %73 = zext i8 %72 to i32
  %74 = and i32 %73, 128
  %75 = icmp ne i32 %74, 0
  br i1 %75, label %76, label %77

76:                                               ; preds = %69
  store i32 -1, ptr %15, align 4
  br label %78

77:                                               ; preds = %69
  store i32 0, ptr %15, align 4
  br label %78

78:                                               ; preds = %77, %76
  br label %79

79:                                               ; preds = %78, %66
  %80 = load i32, ptr %15, align 4
  %81 = shl i32 %80, 8
  %82 = load ptr, ptr %16, align 8
  %83 = load i32, ptr %13, align 4
  %84 = call zeroext i8 @tvb_get_uint8(ptr noundef %82, i32 noundef %83)
  %85 = zext i8 %84 to i32
  %86 = or i32 %81, %85
  store i32 %86, ptr %15, align 4
  br label %87

87:                                               ; preds = %79
  %88 = load i32, ptr %13, align 4
  %89 = add i32 %88, 1
  store i32 %89, ptr %13, align 4
  br label %62, !llvm.loop !19

90:                                               ; preds = %62
  %91 = load i32, ptr %14, align 4
  %92 = mul i32 %91, 8
  %93 = load i32, ptr %8, align 4
  %94 = add i32 %93, %92
  store i32 %94, ptr %8, align 4
  %95 = load i32, ptr %11, align 4
  %96 = call ptr @proto_registrar_get_nth(i32 noundef %95)
  store ptr %96, ptr %18, align 8
  %97 = load ptr, ptr %18, align 8
  %98 = icmp ne ptr %97, null
  br i1 %98, label %100, label %99

99:                                               ; preds = %90
  call void @except_throw(i64 noundef 1, i64 noundef 3, ptr noundef null) #12
  unreachable

100:                                              ; preds = %90
  %101 = load ptr, ptr %18, align 8
  %102 = getelementptr inbounds nuw %struct._header_field_info, ptr %101, i32 0, i32 2
  %103 = load i32, ptr %102, align 8
  %104 = icmp eq i32 %103, 12
  br i1 %104, label %140, label %105

105:                                              ; preds = %100
  %106 = load ptr, ptr %18, align 8
  %107 = getelementptr inbounds nuw %struct._header_field_info, ptr %106, i32 0, i32 2
  %108 = load i32, ptr %107, align 8
  %109 = icmp eq i32 %108, 13
  br i1 %109, label %140, label %110

110:                                              ; preds = %105
  %111 = load ptr, ptr %18, align 8
  %112 = getelementptr inbounds nuw %struct._header_field_info, ptr %111, i32 0, i32 2
  %113 = load i32, ptr %112, align 8
  %114 = icmp eq i32 %113, 14
  br i1 %114, label %140, label %115

115:                                              ; preds = %110
  %116 = load ptr, ptr %18, align 8
  %117 = getelementptr inbounds nuw %struct._header_field_info, ptr %116, i32 0, i32 2
  %118 = load i32, ptr %117, align 8
  %119 = icmp eq i32 %118, 15
  br i1 %119, label %140, label %120

120:                                              ; preds = %115
  %121 = load ptr, ptr %18, align 8
  %122 = getelementptr inbounds nuw %struct._header_field_info, ptr %121, i32 0, i32 2
  %123 = load i32, ptr %122, align 8
  %124 = icmp eq i32 %123, 16
  br i1 %124, label %140, label %125

125:                                              ; preds = %120
  %126 = load ptr, ptr %18, align 8
  %127 = getelementptr inbounds nuw %struct._header_field_info, ptr %126, i32 0, i32 2
  %128 = load i32, ptr %127, align 8
  %129 = icmp eq i32 %128, 17
  br i1 %129, label %140, label %130

130:                                              ; preds = %125
  %131 = load ptr, ptr %18, align 8
  %132 = getelementptr inbounds nuw %struct._header_field_info, ptr %131, i32 0, i32 2
  %133 = load i32, ptr %132, align 8
  %134 = icmp eq i32 %133, 18
  br i1 %134, label %140, label %135

135:                                              ; preds = %130
  %136 = load ptr, ptr %18, align 8
  %137 = getelementptr inbounds nuw %struct._header_field_info, ptr %136, i32 0, i32 2
  %138 = load i32, ptr %137, align 8
  %139 = icmp eq i32 %138, 19
  br i1 %139, label %140, label %153

140:                                              ; preds = %135, %130, %125, %120, %115, %110, %105, %100
  %141 = load ptr, ptr %10, align 8
  %142 = load i32, ptr %11, align 4
  %143 = load ptr, ptr %7, align 8
  %144 = load i32, ptr %8, align 4
  %145 = lshr i32 %144, 3
  %146 = load i32, ptr %14, align 4
  %147 = add i32 %146, 1
  %148 = sub i32 %145, %147
  %149 = load i32, ptr %14, align 4
  %150 = add i32 %149, 1
  %151 = load i32, ptr %15, align 4
  %152 = call ptr @proto_tree_add_int(ptr noundef %141, i32 noundef %142, ptr noundef %143, i32 noundef %148, i32 noundef %150, i32 noundef %151)
  store ptr %152, ptr %17, align 8
  br label %234

153:                                              ; preds = %135
  %154 = load ptr, ptr %18, align 8
  %155 = getelementptr inbounds nuw %struct._header_field_info, ptr %154, i32 0, i32 2
  %156 = load i32, ptr %155, align 8
  %157 = icmp eq i32 %156, 3
  br i1 %157, label %203, label %158

158:                                              ; preds = %153
  %159 = load ptr, ptr %18, align 8
  %160 = getelementptr inbounds nuw %struct._header_field_info, ptr %159, i32 0, i32 2
  %161 = load i32, ptr %160, align 8
  %162 = icmp eq i32 %161, 4
  br i1 %162, label %203, label %163

163:                                              ; preds = %158
  %164 = load ptr, ptr %18, align 8
  %165 = getelementptr inbounds nuw %struct._header_field_info, ptr %164, i32 0, i32 2
  %166 = load i32, ptr %165, align 8
  %167 = icmp eq i32 %166, 5
  br i1 %167, label %203, label %168

168:                                              ; preds = %163
  %169 = load ptr, ptr %18, align 8
  %170 = getelementptr inbounds nuw %struct._header_field_info, ptr %169, i32 0, i32 2
  %171 = load i32, ptr %170, align 8
  %172 = icmp eq i32 %171, 6
  br i1 %172, label %203, label %173

173:                                              ; preds = %168
  %174 = load ptr, ptr %18, align 8
  %175 = getelementptr inbounds nuw %struct._header_field_info, ptr %174, i32 0, i32 2
  %176 = load i32, ptr %175, align 8
  %177 = icmp eq i32 %176, 7
  br i1 %177, label %203, label %178

178:                                              ; preds = %173
  %179 = load ptr, ptr %18, align 8
  %180 = getelementptr inbounds nuw %struct._header_field_info, ptr %179, i32 0, i32 2
  %181 = load i32, ptr %180, align 8
  %182 = icmp eq i32 %181, 35
  br i1 %182, label %203, label %183

183:                                              ; preds = %178
  %184 = load ptr, ptr %18, align 8
  %185 = getelementptr inbounds nuw %struct._header_field_info, ptr %184, i32 0, i32 2
  %186 = load i32, ptr %185, align 8
  %187 = icmp eq i32 %186, 8
  br i1 %187, label %203, label %188

188:                                              ; preds = %183
  %189 = load ptr, ptr %18, align 8
  %190 = getelementptr inbounds nuw %struct._header_field_info, ptr %189, i32 0, i32 2
  %191 = load i32, ptr %190, align 8
  %192 = icmp eq i32 %191, 9
  br i1 %192, label %203, label %193

193:                                              ; preds = %188
  %194 = load ptr, ptr %18, align 8
  %195 = getelementptr inbounds nuw %struct._header_field_info, ptr %194, i32 0, i32 2
  %196 = load i32, ptr %195, align 8
  %197 = icmp eq i32 %196, 10
  br i1 %197, label %203, label %198

198:                                              ; preds = %193
  %199 = load ptr, ptr %18, align 8
  %200 = getelementptr inbounds nuw %struct._header_field_info, ptr %199, i32 0, i32 2
  %201 = load i32, ptr %200, align 8
  %202 = icmp eq i32 %201, 11
  br i1 %202, label %203, label %216

203:                                              ; preds = %198, %193, %188, %183, %178, %173, %168, %163, %158, %153
  %204 = load ptr, ptr %10, align 8
  %205 = load i32, ptr %11, align 4
  %206 = load ptr, ptr %7, align 8
  %207 = load i32, ptr %8, align 4
  %208 = lshr i32 %207, 3
  %209 = load i32, ptr %14, align 4
  %210 = add i32 %209, 1
  %211 = sub i32 %208, %210
  %212 = load i32, ptr %14, align 4
  %213 = add i32 %212, 1
  %214 = load i32, ptr %15, align 4
  %215 = call ptr @proto_tree_add_uint(ptr noundef %204, i32 noundef %205, ptr noundef %206, i32 noundef %211, i32 noundef %213, i32 noundef %214)
  store ptr %215, ptr %17, align 8
  br label %233

216:                                              ; preds = %198
  %217 = load ptr, ptr %10, align 8
  %218 = load ptr, ptr %9, align 8
  %219 = getelementptr inbounds nuw %struct._asn1_ctx_t, ptr %218, i32 0, i32 3
  %220 = load ptr, ptr %219, align 8
  %221 = load ptr, ptr %7, align 8
  %222 = load i32, ptr %8, align 4
  %223 = lshr i32 %222, 3
  %224 = load i32, ptr %14, align 4
  %225 = add i32 %224, 1
  %226 = sub i32 %223, %225
  %227 = load i32, ptr %14, align 4
  %228 = add i32 %227, 1
  %229 = load ptr, ptr %18, align 8
  %230 = getelementptr inbounds nuw %struct._header_field_info, ptr %229, i32 0, i32 1
  %231 = load ptr, ptr %230, align 8
  %232 = call ptr (ptr, ptr, ptr, ptr, i32, i32, ptr, ...) @proto_tree_add_expert_format(ptr noundef %217, ptr noundef %220, ptr noundef @ei_per_field_not_integer, ptr noundef %221, i32 noundef %226, i32 noundef %228, ptr noundef @.str.21, ptr noundef %231)
  call void (ptr, ...) @proto_report_dissector_bug(ptr noundef @.str.22) #12
  unreachable

233:                                              ; preds = %203
  br label %234

234:                                              ; preds = %233, %140
  %235 = load ptr, ptr %17, align 8
  %236 = load ptr, ptr %9, align 8
  %237 = getelementptr inbounds nuw %struct._asn1_ctx_t, ptr %236, i32 0, i32 4
  store ptr %235, ptr %237, align 8
  %238 = load ptr, ptr %12, align 8
  %239 = icmp ne ptr %238, null
  br i1 %239, label %240, label %243

240:                                              ; preds = %234
  %241 = load i32, ptr %15, align 4
  %242 = load ptr, ptr %12, align 8
  store i32 %241, ptr %242, align 4
  br label %243

243:                                              ; preds = %240, %234
  %244 = load i32, ptr %8, align 4
  call void @llvm.lifetime.end.p0(i64 8, ptr %18) #11
  call void @llvm.lifetime.end.p0(i64 8, ptr %17) #11
  call void @llvm.lifetime.end.p0(i64 8, ptr %16) #11
  call void @llvm.lifetime.end.p0(i64 4, ptr %15) #11
  call void @llvm.lifetime.end.p0(i64 4, ptr %14) #11
  call void @llvm.lifetime.end.p0(i64 4, ptr %13) #11
  ret i32 %244
}