; Function Attrs: null_pointer_is_valid sspstrong uwtable
define i32 @dissect_per_integer(ptr noundef %0, i32 noundef %1, ptr noundef captures(none) %2, ptr noundef %3, i32 noundef %4, ptr noundef writeonly captures(address_is_null) %5) local_unnamed_addr #0 {
  %7 = alloca i32, align 4
  call void @llvm.lifetime.start.p0(i64 4, ptr nonnull %7) #13
  %8 = load i32, ptr @hf_per_integer_length, align 4
  %9 = call i32 @dissect_per_length_determinant(ptr noundef %0, i32 noundef %1, ptr noundef %2, ptr noundef %3, i32 noundef %8, ptr noundef nonnull %7, ptr noundef null)
  %10 = load i32, ptr %7, align 4
  %11 = icmp ugt i32 %10, 4
  br i1 %11, label %12, label %18

12:                                               ; preds = %6
  %13 = getelementptr inbounds nuw i8, ptr %2, i64 16
  %14 = load ptr, ptr %13, align 8
  %15 = call ptr (ptr, ptr, ptr, ptr, i32, i32, ptr, ...) @proto_tree_add_expert_format(ptr noundef %3, ptr noundef %14, ptr noundef nonnull @ei_per_undecoded, ptr noundef %0, i32 noundef 0, i32 noundef 0, ptr noundef nonnull @.str, ptr noundef nonnull @.str.19)
  %16 = getelementptr inbounds nuw i8, ptr %14, i64 8
  %17 = load ptr, ptr %16, align 8
  call void (ptr, i32, ptr, ...) @col_append_fstr(ptr noundef %17, i32 noundef 25, ptr noundef nonnull @.str.1, ptr noundef nonnull @.str.19)
  call void @except_throw(i64 noundef 1, i64 noundef 3, ptr noundef null) #12
  unreachable

18:                                               ; preds = %6
  %19 = icmp eq i32 %10, 0
  br i1 %19, label %20, label %26

20:                                               ; preds = %18
  %21 = getelementptr inbounds nuw i8, ptr %2, i64 16
  %22 = load ptr, ptr %21, align 8
  %23 = call ptr (ptr, ptr, ptr, ptr, i32, i32, ptr, ...) @proto_tree_add_expert_format(ptr noundef %3, ptr noundef %22, ptr noundef nonnull @ei_per_undecoded, ptr noundef %0, i32 noundef 0, i32 noundef 0, ptr noundef nonnull @.str, ptr noundef nonnull @.str.20)
  %24 = getelementptr inbounds nuw i8, ptr %22, i64 8
  %25 = load ptr, ptr %24, align 8
  call void (ptr, i32, ptr, ...) @col_append_fstr(ptr noundef %25, i32 noundef 25, ptr noundef nonnull @.str.1, ptr noundef nonnull @.str.20)
  call void @except_throw(i64 noundef 1, i64 noundef 3, ptr noundef null) #12
  unreachable

26:                                               ; preds = %18
  %27 = getelementptr inbounds nuw i8, ptr %2, i64 8
  %28 = load i8, ptr %27, align 8, !range !6, !noundef !7
  %29 = trunc nuw i8 %28 to i1
  %30 = and i32 %9, 7
  %.not = icmp ne i32 %30, 0
  %or.cond.not = select i1 %29, i1 %.not, i1 false
  %31 = and i32 %9, -8
  %32 = add i32 %31, 8
  %.0 = select i1 %or.cond.not, i32 %32, i32 %9
  %33 = shl nuw nsw i32 %10, 3
  %34 = call ptr @tvb_new_octet_aligned(ptr noundef %0, i32 noundef %.0, i32 noundef %33)
  %35 = load i32, ptr %7, align 4
  %.not79 = icmp eq i32 %35, 0
  br i1 %.not79, label %._crit_edge, label %.lr.ph

.lr.ph:                                           ; preds = %26, %39
  %.06577 = phi i32 [ %43, %39 ], [ 0, %26 ]
  %.06676 = phi i32 [ %44, %39 ], [ 0, %26 ]
  %36 = icmp eq i32 %.06676, 0
  br i1 %36, label %37, label %39

37:                                               ; preds = %.lr.ph
  %38 = call zeroext i8 @tvb_get_uint8(ptr noundef %34, i32 noundef 0)
  %.lobit = ashr i8 %38, 7
  %. = sext i8 %.lobit to i32
  br label %39

39:                                               ; preds = %37, %.lr.ph
  %.1 = phi i32 [ %.06577, %.lr.ph ], [ %., %37 ]
  %40 = shl i32 %.1, 8
  %41 = call zeroext i8 @tvb_get_uint8(ptr noundef %34, i32 noundef %.06676)
  %42 = zext i8 %41 to i32
  %43 = or disjoint i32 %40, %42
  %44 = add nuw i32 %.06676, 1
  %45 = load i32, ptr %7, align 4
  %46 = icmp ult i32 %44, %45
  br i1 %46, label %.lr.ph, label %._crit_edge.loopexit, !llvm.loop !19

._crit_edge.loopexit:                             ; preds = %39
  %47 = shl i32 %45, 3
  br label %._crit_edge

._crit_edge:                                      ; preds = %._crit_edge.loopexit, %26
  %.065.lcssa = phi i32 [ 0, %26 ], [ %43, %._crit_edge.loopexit ]
  %.lcssa = phi i32 [ 0, %26 ], [ %47, %._crit_edge.loopexit ]
  %48 = add i32 %.lcssa, %.0
  %49 = call ptr @proto_registrar_get_nth(i32 noundef %4)
  %.not71 = icmp eq ptr %49, null
  br i1 %.not71, label %50, label %51

50:                                               ; preds = %._crit_edge
  call void @except_throw(i64 noundef 1, i64 noundef 3, ptr noundef null) #12
  unreachable

51:                                               ; preds = %._crit_edge
  %52 = getelementptr inbounds nuw i8, ptr %49, i64 16
  %53 = load i32, ptr %52, align 8
  switch i32 %53, label %66 [
    i32 12, label %54
    i32 13, label %54
    i32 14, label %54
    i32 15, label %54
    i32 16, label %54
    i32 17, label %54
    i32 18, label %54
    i32 19, label %54
    i32 3, label %60
    i32 4, label %60
    i32 5, label %60
    i32 6, label %60
    i32 7, label %60
    i32 35, label %60
    i32 8, label %60
    i32 9, label %60
    i32 10, label %60
    i32 11, label %60
  ]

54:                                               ; preds = %51, %51, %51, %51, %51, %51, %51, %51
  %55 = lshr i32 %48, 3
  %56 = load i32, ptr %7, align 4
  %57 = add i32 %56, 1
  %58 = sub i32 %55, %57
  %59 = call ptr @proto_tree_add_int(ptr noundef %3, i32 noundef %4, ptr noundef %0, i32 noundef %58, i32 noundef %57, i32 noundef %.065.lcssa)
  br label %76

60:                                               ; preds = %51, %51, %51, %51, %51, %51, %51, %51, %51, %51
  %61 = lshr i32 %48, 3
  %62 = load i32, ptr %7, align 4
  %63 = add i32 %62, 1
  %64 = sub i32 %61, %63
  %65 = call ptr @proto_tree_add_uint(ptr noundef %3, i32 noundef %4, ptr noundef %0, i32 noundef %64, i32 noundef %63, i32 noundef %.065.lcssa)
  br label %76

66:                                               ; preds = %51
  %67 = getelementptr inbounds nuw i8, ptr %2, i64 16
  %68 = load ptr, ptr %67, align 8
  %69 = lshr i32 %48, 3
  %70 = load i32, ptr %7, align 4
  %71 = add i32 %70, 1
  %72 = sub i32 %69, %71
  %73 = getelementptr inbounds nuw i8, ptr %49, i64 8
  %74 = load ptr, ptr %73, align 8
  %75 = call ptr (ptr, ptr, ptr, ptr, i32, i32, ptr, ...) @proto_tree_add_expert_format(ptr noundef %3, ptr noundef %68, ptr noundef nonnull @ei_per_field_not_integer, ptr noundef %0, i32 noundef %72, i32 noundef %71, ptr noundef nonnull @.str.21, ptr noundef %74)
  call void (ptr, ...) @proto_report_dissector_bug(ptr noundef nonnull @.str.22) #12
  unreachable

76:                                               ; preds = %60, %54
  %.064 = phi ptr [ %59, %54 ], [ %65, %60 ]
  %77 = getelementptr inbounds nuw i8, ptr %2, i64 24
  store ptr %.064, ptr %77, align 8
  %.not72 = icmp eq ptr %5, null
  br i1 %.not72, label %79, label %78

78:                                               ; preds = %76
  store i32 %.065.lcssa, ptr %5, align 4
  br label %79

79:                                               ; preds = %78, %76
  call void @llvm.lifetime.end.p0(i64 4, ptr nonnull %7) #13
  ret i32 %48
}